target datalayout = "e-m:e-p270:32:32-p271:32:32-p272:64:64-i64:64-i128:128-f80:128-n8:16:32:64-S128"
target triple = "x86_64-pc-linux-gnu"

%struct.rb_data_type_struct = type { ptr, %struct.anon.14, ptr, ptr, i64 }
%struct.anon.14 = type { ptr, ptr, ptr, ptr, [1 x ptr] }
%struct.METHOD = type { i64, i64, i64, i64, ptr }

@proc_data_type = internal constant %struct.rb_data_type_struct { ptr @.str.44, %struct.anon.14 { ptr @proc_mark_and_move, ptr inttoptr (i64 -1 to ptr), ptr @proc_memsize, ptr @proc_mark_and_move, [1 x ptr] zeroinitializer }, ptr null, ptr null, i64 33 }, align 8
@method_data_type = internal constant %struct.rb_data_type_struct { ptr @.str.53, %struct.anon.14 { ptr @bm_mark_and_move, ptr inttoptr (i64 -1 to ptr), ptr null, ptr @bm_mark_and_move, [1 x ptr] zeroinitializer }, ptr null, ptr null, i64 35 }, align 8
@rb_callable_receiver.rbimpl_id = internal global i64 0, align 8
@.str.17 = private unnamed_addr constant [9 x i8] c"receiver\00", align 1

; Function Attrs: inlinehint nounwind sspstrong willreturn memory(read) uwtable
define internal i64 @rb_intern_const(ptr noundef nonnull %0) #7 {
  %2 = alloca ptr, align 8
  %3 = alloca i64, align 8
  store ptr %0, ptr %2, align 8, !tbaa !73
  call void @llvm.lifetime.start.p0(i64 8, ptr %3) #25
  %4 = load ptr, ptr %2, align 8, !tbaa !73
  %5 = call i64 @strlen(ptr noundef %4) #28
  store i64 %5, ptr %3, align 8, !tbaa !7
  %6 = load ptr, ptr %2, align 8, !tbaa !73
  %7 = load i64, ptr %3, align 8, !tbaa !7
  %8 = call i64 @rb_intern2(ptr noundef %6, i64 noundef %7)
  call void @llvm.lifetime.end.p0(i64 8, ptr %3) #25
  ret i64 %8
}

; Function Attrs: nounwind sspstrong uwtable
define internal i64 @method_receiver(i64 noundef %0) #0 {
  %2 = alloca i64, align 8
  %3 = alloca ptr, align 8
  store i64 %0, ptr %2, align 8, !tbaa !7
  call void @llvm.lifetime.start.p0(i64 8, ptr %3) #25
  %4 = load i64, ptr %2, align 8, !tbaa !7
  %5 = call ptr @rb_check_typeddata(i64 noundef %4, ptr noundef @method_data_type)
  store ptr %5, ptr %3, align 8, !tbaa !95
  %6 = load ptr, ptr %3, align 8, !tbaa !95
  %7 = getelementptr inbounds nuw %struct.METHOD, ptr %6, i32 0, i32 0
  %8 = load i64, ptr %7, align 8, !tbaa !103
  call void @llvm.lifetime.end.p0(i64 8, ptr %3) #25
  ret i64 %8
}

; Function Attrs: nounwind sspstrong uwtable
define dso_local i64 @rb_obj_is_method(i64 noundef %0) #0 {
  %2 = alloca i64, align 8
  store i64 %0, ptr %2, align 8, !tbaa !7
  %3 = load i64, ptr %2, align 8, !tbaa !7
  %4 = call i32 @rb_typeddata_is_kind_of(i64 noundef %3, ptr noundef @method_data_type)
  %5 = icmp ne i32 %4, 0
  %6 = select i1 %5, i64 20, i64 0
  ret i64 %6
}

; Function Attrs: inlinehint nounwind sspstrong memory(argmem: readwrite, inaccessiblemem: readwrite) uwtable
define internal i64 @rbimpl_intern_const(ptr noundef nonnull %0, ptr noundef nonnull %1) #4 {
  %3 = alloca ptr, align 8
  %4 = alloca ptr, align 8
  store ptr %0, ptr %3, align 8, !tbaa !35
  store ptr %1, ptr %4, align 8, !tbaa !73
  br label %5

5:                                                ; preds = %10, %2
  %6 = load ptr, ptr %3, align 8, !tbaa !35
  %7 = load i64, ptr %6, align 8, !tbaa !7
  %8 = icmp ne i64 %7, 0
  %9 = xor i1 %8, true
  br i1 %9, label %10, label %14

10:                                               ; preds = %5
  %11 = load ptr, ptr %4, align 8, !tbaa !73
  %12 = call i64 @rb_intern_const(ptr noundef %11) #28
  %13 = load ptr, ptr %3, align 8, !tbaa !35
  store i64 %12, ptr %13, align 8, !tbaa !7
  br label %5, !llvm.loop !75

14:                                               ; preds = %5
  %15 = load ptr, ptr %3, align 8, !tbaa !35
  %16 = load i64, ptr %15, align 8, !tbaa !7
  ret i64 %16
}

; Function Attrs: nounwind sspstrong uwtable
define dso_local i64 @rb_obj_is_proc(i64 noundef %0) #0 {
  %2 = alloca i64, align 8
  store i64 %0, ptr %2, align 8, !tbaa !7
  %3 = load i64, ptr %2, align 8, !tbaa !7
  %4 = call i32 @rb_typeddata_is_kind_of(i64 noundef %3, ptr noundef @proc_data_type)
  %5 = icmp ne i32 %4, 0
  %6 = select i1 %5, i64 20, i64 0
  ret i64 %6
}

; Function Attrs: nounwind sspstrong uwtable
define hidden i64 @rb_callable_receiver(i64 noundef %0) #0 {
  %2 = alloca i64, align 8
  %3 = alloca i64, align 8
  %4 = alloca i64, align 8
  %5 = alloca i64, align 8
  store i64 %0, ptr %3, align 8, !tbaa !7
  %6 = load i64, ptr %3, align 8, !tbaa !7
  %7 = call i64 @rb_obj_is_proc(i64 noundef %6)
  %8 = icmp ne i64 %7, 0
  br i1 %8, label %9, label %16

9:                                                ; preds = %1
  call void @llvm.lifetime.start.p0(i64 8, ptr %4) #25
  %10 = load i64, ptr %3, align 8, !tbaa !7
  %11 = call i64 @proc_binding(i64 noundef %10)
  store i64 %11, ptr %4, align 8, !tbaa !7
  %12 = load i64, ptr %4, align 8, !tbaa !7
  %13 = call i64 @rbimpl_intern_const(ptr noundef @rb_callable_receiver.rbimpl_id, ptr noundef @.str.17) #26
  store i64 %13, ptr %5, align 8, !tbaa !7
  %14 = load i64, ptr %5, align 8, !tbaa !7
  %15 = call i64 (i64, i64, i32, ...) @rb_funcall(i64 noundef %12, i64 noundef %14, i32 noundef 0)
  store i64 %15, ptr %2, align 8
  call void @llvm.lifetime.end.p0(i64 8, ptr %4) #25
  br label %24

16:                                               ; preds = %1
  %17 = load i64, ptr %3, align 8, !tbaa !7
  %18 = call i64 @rb_obj_is_method(i64 noundef %17)
  %19 = icmp ne i64 %18, 0
  br i1 %19, label %20, label %23

20:                                               ; preds = %16
  %21 = load i64, ptr %3, align 8, !tbaa !7
  %22 = call i64 @method_receiver(i64 noundef %21)
  store i64 %22, ptr %2, align 8
  br label %24

23:                                               ; preds = %16
  store i64 36, ptr %2, align 8
  br label %24

24:                                               ; preds = %23, %20, %9
  %25 = load i64, ptr %2, align 8
  ret i64 %25
}