; Function Attrs: nounwind sspstrong uwtable
define hidden i64 @rb_callable_receiver(i64 noundef %0) local_unnamed_addr #0 {
  %2 = tail call i32 @rb_typeddata_is_kind_of(i64 noundef %0, ptr noundef nonnull @proc_data_type) #21
  %.not.i = icmp eq i32 %2, 0
  br i1 %.not.i, label %7, label %3

3:                                                ; preds = %1
  %4 = tail call i64 @proc_binding(i64 noundef %0)
  %.pr.i = load i64, ptr @rb_callable_receiver.rbimpl_id, align 8, !tbaa !36
  %.not4.i = icmp eq i64 %.pr.i, 0
  br i1 %.not4.i, label %.lr.ph.i, label %rbimpl_intern_const.exit

.lr.ph.i:                                         ; preds = %3, %.lr.ph.i
  %5 = tail call i64 @rb_intern2(ptr noundef nonnull @.str.17, i64 noundef 8) #21
  store i64 %5, ptr @rb_callable_receiver.rbimpl_id, align 8, !tbaa !36
  %.not.i8 = icmp eq i64 %5, 0
  br i1 %.not.i8, label %.lr.ph.i, label %rbimpl_intern_const.exit, !llvm.loop !92

rbimpl_intern_const.exit:                         ; preds = %.lr.ph.i, %3
  %.lcssa.i = phi i64 [ %.pr.i, %3 ], [ %5, %.lr.ph.i ]
  %6 = tail call i64 (i64, i64, i32, ...) @rb_funcall(i64 noundef %4, i64 noundef %.lcssa.i, i32 noundef 0) #21
  br label %12

7:                                                ; preds = %1
  %8 = tail call i32 @rb_typeddata_is_kind_of(i64 noundef %0, ptr noundef nonnull @method_data_type) #21
  %.not.i9 = icmp eq i32 %8, 0
  br i1 %.not.i9, label %12, label %9

9:                                                ; preds = %7
  %10 = tail call ptr @rb_check_typeddata(i64 noundef %0, ptr noundef nonnull @method_data_type) #21
  %11 = load i64, ptr %10, align 8, !tbaa !84
  br label %12

12:                                               ; preds = %7, %9, %rbimpl_intern_const.exit
  %.0 = phi i64 [ %6, %rbimpl_intern_const.exit ], [ %11, %9 ], [ 36, %7 ]
  ret i64 %.0
}